; ModuleID = '4/60.c'
source_filename = "4/60.c"
target datalayout = "e-m:e-p270:32:32-p271:32:32-p272:64:64-i64:64-f80:128-n8:16:32:64-S128"
target triple = "x86_64-pc-linux-gnu"

@.str = private unnamed_addr constant [6 x i8] c"%d %d\00", align 1
@.str.1 = private unnamed_addr constant [3 x i8] c"%d\00", align 1
@.str.2 = private unnamed_addr constant [4 x i8] c"%d\0A\00", align 1

; Function Attrs: noinline nounwind uwtable
define dso_local void @main() #0 {
  %1 = alloca i32, align 4
  %2 = alloca i32, align 4
  %3 = alloca i32, align 4
  %4 = alloca i32, align 4
  %5 = alloca i32, align 4
  %6 = alloca i32, align 4
  %7 = alloca i32*, align 8
  %8 = alloca i32, align 4
  %9 = alloca i32, align 4
  %10 = alloca i32, align 4
  %11 = alloca i32, align 4
  %12 = alloca i32*, align 8
  %13 = call i32 (i8*, ...) @__isoc99_scanf(i8* getelementptr inbounds ([6 x i8], [6 x i8]* @.str, i64 0, i64 0), i32* %9, i32* %8)
  %14 = load i32, i32* %9, align 4
  %15 = load i32, i32* %8, align 4
  %16 = mul nsw i32 %14, %15
  store i32 %16, i32* %10, align 4
  %17 = call noalias i8* @malloc(i64 40000) #3
  %18 = bitcast i8* %17 to i32*
  store i32* %18, i32** %12, align 8
  %19 = load i32*, i32** %12, align 8
  store i32* %19, i32** %7, align 8
  %20 = load i32, i32* %8, align 4
  %21 = load i32, i32* %9, align 4
  %22 = icmp sgt i32 %20, %21
  br i1 %22, label %23, label %25

23:                                               ; preds = %0
  %24 = load i32, i32* %8, align 4
  store i32 %24, i32* %11, align 4
  br label %27

25:                                               ; preds = %0
  %26 = load i32, i32* %9, align 4
  store i32 %26, i32* %11, align 4
  br label %27

27:                                               ; preds = %25, %23
  store i32 0, i32* %5, align 4
  br label %28

28:                                               ; preds = %38, %27
  %29 = load i32, i32* %5, align 4
  %30 = load i32, i32* %10, align 4
  %31 = icmp slt i32 %29, %30
  br i1 %31, label %32, label %41

32:                                               ; preds = %28
  %33 = load i32*, i32** %12, align 8
  %34 = load i32, i32* %5, align 4
  %35 = sext i32 %34 to i64
  %36 = getelementptr inbounds i32, i32* %33, i64 %35
  %37 = call i32 (i8*, ...) @__isoc99_scanf(i8* getelementptr inbounds ([3 x i8], [3 x i8]* @.str.1, i64 0, i64 0), i32* %36)
  br label %38

38:                                               ; preds = %32
  %39 = load i32, i32* %5, align 4
  %40 = add nsw i32 %39, 1
  store i32 %40, i32* %5, align 4
  br label %28

41:                                               ; preds = %28
  store i32 0, i32* %4, align 4
  br label %42

42:                                               ; preds = %84, %41
  %43 = load i32, i32* %4, align 4
  %44 = load i32, i32* %8, align 4
  %45 = load i32, i32* %9, align 4
  %46 = add nsw i32 %44, %45
  %47 = icmp slt i32 %43, %46
  br i1 %47, label %48, label %87

48:                                               ; preds = %42
  store i32 0, i32* %6, align 4
  br label %49

49:                                               ; preds = %80, %48
  %50 = load i32, i32* %6, align 4
  %51 = load i32, i32* %4, align 4
  %52 = icmp sle i32 %50, %51
  br i1 %52, label %53, label %83

53:                                               ; preds = %49
  %54 = load i32, i32* %4, align 4
  %55 = load i32, i32* %6, align 4
  %56 = sub nsw i32 %54, %55
  %57 = load i32, i32* %8, align 4
  %58 = icmp slt i32 %56, %57
  br i1 %58, label %59, label %79

59:                                               ; preds = %53
  %60 = load i32, i32* %6, align 4
  %61 = load i32, i32* %9, align 4
  %62 = icmp slt i32 %60, %61
  br i1 %62, label %63, label %79

63:                                               ; preds = %59
  %64 = load i32*, i32** %7, align 8
  %65 = load i32, i32* %4, align 4
  %66 = sext i32 %65 to i64
  %67 = getelementptr inbounds i32, i32* %64, i64 %66
  %68 = load i32, i32* %6, align 4
  %69 = sext i32 %68 to i64
  %70 = sub i64 0, %69
  %71 = getelementptr inbounds i32, i32* %67, i64 %70
  %72 = load i32, i32* %8, align 4
  %73 = load i32, i32* %6, align 4
  %74 = mul nsw i32 %72, %73
  %75 = sext i32 %74 to i64
  %76 = getelementptr inbounds i32, i32* %71, i64 %75
  %77 = load i32, i32* %76, align 4
  %78 = call i32 (i8*, ...) @printf(i8* getelementptr inbounds ([4 x i8], [4 x i8]* @.str.2, i64 0, i64 0), i32 %77)
  br label %79

79:                                               ; preds = %63, %59, %53
  br label %80

80:                                               ; preds = %79
  %81 = load i32, i32* %6, align 4
  %82 = add nsw i32 %81, 1
  store i32 %82, i32* %6, align 4
  br label %49

83:                                               ; preds = %49
  br label %84

84:                                               ; preds = %83
  %85 = load i32, i32* %4, align 4
  %86 = add nsw i32 %85, 1
  store i32 %86, i32* %4, align 4
  br label %42

87:                                               ; preds = %42
  ret void
}

declare dso_local i32 @__isoc99_scanf(i8*, ...) #1

; Function Attrs: nounwind
declare dso_local noalias i8* @malloc(i64) #2

declare dso_local i32 @printf(i8*, ...) #1


!llvm.module.flags = !{!0}
!llvm.ident = !{!1}

!0 = !{i32 1, !"wchar_size", i32 4}
!1 = !{!"clang version 10.0.0-4ubuntu1 "}
