; ModuleID = 'source-C-CXX/3/60.c'
source_filename = "source-C-CXX/3/60.c"
target datalayout = "e-m:e-p270:32:32-p271:32:32-p272:64:64-i64:64-f80:128-n8:16:32:64-S128"
target triple = "x86_64-pc-linux-gnu"

@.str = private unnamed_addr constant [6 x i8] c"%d %d\00", align 1
@.str.1 = private unnamed_addr constant [3 x i8] c"%d\00", align 1
@.str.2 = private unnamed_addr constant [4 x i8] c"%d\0A\00", align 1

; Function Attrs: nofree nounwind sspstrong uwtable
define dso_local void @main() local_unnamed_addr #0 {
  %1 = alloca i32, align 4
  %2 = alloca i32, align 4
  %3 = bitcast i32* %1 to i8*
  call void @llvm.lifetime.start.p0i8(i64 4, i8* nonnull %3) #4
  %4 = bitcast i32* %2 to i8*
  call void @llvm.lifetime.start.p0i8(i64 4, i8* nonnull %4) #4
  %5 = call i32 (i8*, ...) @__isoc99_scanf(i8* getelementptr inbounds ([6 x i8], [6 x i8]* @.str, i64 0, i64 0), i32* nonnull %2, i32* nonnull %1)
  %6 = load i32, i32* %2, align 4, !tbaa !5
  %7 = load i32, i32* %1, align 4, !tbaa !5
  %8 = mul i32 %7, %6
  %9 = call noalias align 16 dereferenceable_or_null(40000) i8* @malloc(i64 40000) #4
  %10 = bitcast i8* %9 to i32*
  %11 = icmp sgt i32 %8, 0
  br i1 %11, label %12, label %17

12:                                               ; preds = %0
  %13 = zext i32 %8 to i64
  br label %22

14:                                               ; preds = %22
  %15 = load i32, i32* %1, align 4, !tbaa !5
  %16 = load i32, i32* %2, align 4, !tbaa !5
  br label %17

17:                                               ; preds = %14, %0
  %18 = phi i32 [ %16, %14 ], [ %6, %0 ]
  %19 = phi i32 [ %15, %14 ], [ %7, %0 ]
  %20 = add nsw i32 %18, %19
  %21 = icmp sgt i32 %20, 0
  br i1 %21, label %28, label %65

22:                                               ; preds = %12, %22
  %23 = phi i64 [ 0, %12 ], [ %26, %22 ]
  %24 = getelementptr inbounds i32, i32* %10, i64 %23
  %25 = call i32 (i8*, ...) @__isoc99_scanf(i8* getelementptr inbounds ([3 x i8], [3 x i8]* @.str.1, i64 0, i64 0), i32* %24)
  %26 = add nuw nsw i64 %23, 1
  %27 = icmp eq i64 %26, %13
  br i1 %27, label %14, label %22, !llvm.loop !9

28:                                               ; preds = %17, %57
  %29 = phi i32 [ %60, %57 ], [ %18, %17 ]
  %30 = phi i32 [ %59, %57 ], [ %19, %17 ]
  %31 = phi i64 [ %58, %57 ], [ 0, %17 ]
  %32 = phi i64 [ %64, %57 ], [ 1, %17 ]
  br label %33

33:                                               ; preds = %54, %28
  %34 = phi i32 [ %29, %28 ], [ %56, %54 ]
  %35 = phi i32 [ %30, %28 ], [ %55, %54 ]
  %36 = phi i64 [ 0, %28 ], [ %52, %54 ]
  %37 = sub nsw i64 %31, %36
  %38 = sext i32 %35 to i64
  %39 = icmp slt i64 %37, %38
  %40 = sext i32 %34 to i64
  %41 = icmp slt i64 %36, %40
  %42 = select i1 %39, i1 %41, i1 false
  br i1 %42, label %43, label %51

43:                                               ; preds = %33
  %44 = trunc i64 %36 to i32
  %45 = mul nsw i32 %35, %44
  %46 = sext i32 %45 to i64
  %47 = add nsw i64 %37, %46
  %48 = getelementptr inbounds i32, i32* %10, i64 %47
  %49 = load i32, i32* %48, align 4, !tbaa !5
  %50 = call i32 (i8*, ...) @printf(i8* nonnull dereferenceable(1) getelementptr inbounds ([4 x i8], [4 x i8]* @.str.2, i64 0, i64 0), i32 %49)
  br label %51

51:                                               ; preds = %33, %43
  %52 = add nuw nsw i64 %36, 1
  %53 = icmp eq i64 %52, %32
  br i1 %53, label %57, label %54, !llvm.loop !11

54:                                               ; preds = %51
  %55 = load i32, i32* %1, align 4, !tbaa !5
  %56 = load i32, i32* %2, align 4
  br label %33

57:                                               ; preds = %51
  %58 = add nuw nsw i64 %31, 1
  %59 = load i32, i32* %1, align 4, !tbaa !5
  %60 = load i32, i32* %2, align 4, !tbaa !5
  %61 = add nsw i32 %60, %59
  %62 = sext i32 %61 to i64
  %63 = icmp slt i64 %58, %62
  %64 = add nuw nsw i64 %32, 1
  br i1 %63, label %28, label %65, !llvm.loop !12

65:                                               ; preds = %57, %17
  call void @llvm.lifetime.end.p0i8(i64 4, i8* nonnull %4) #4
  call void @llvm.lifetime.end.p0i8(i64 4, i8* nonnull %3) #4
  ret void
}

; Function Attrs: argmemonly mustprogress nofree nosync nounwind willreturn
declare void @llvm.lifetime.start.p0i8(i64 immarg, i8* nocapture) #1

; Function Attrs: nofree nounwind
declare noundef i32 @__isoc99_scanf(i8* nocapture noundef readonly, ...) local_unnamed_addr #2

; Function Attrs: inaccessiblememonly mustprogress nofree nounwind willreturn
declare noalias noundef align 16 i8* @malloc(i64 noundef) local_unnamed_addr #3

; Function Attrs: nofree nounwind
declare noundef i32 @printf(i8* nocapture noundef readonly, ...) local_unnamed_addr #2

; Function Attrs: argmemonly mustprogress nofree nosync nounwind willreturn
declare void @llvm.lifetime.end.p0i8(i64 immarg, i8* nocapture) #1


!llvm.module.flags = !{!0, !1, !2, !3}
!llvm.ident = !{!4}

!0 = !{i32 1, !"wchar_size", i32 4}
!1 = !{i32 7, !"PIC Level", i32 2}
!2 = !{i32 7, !"PIE Level", i32 2}
!3 = !{i32 7, !"uwtable", i32 1}
!4 = !{!"clang version 13.0.0"}
!5 = !{!6, !6, i64 0}
!6 = !{!"int", !7, i64 0}
!7 = !{!"omnipotent char", !8, i64 0}
!8 = !{!"Simple C/C++ TBAA"}
!9 = distinct !{!9, !10}
!10 = !{!"llvm.loop.mustprogress"}
!11 = distinct !{!11, !10}
!12 = distinct !{!12, !10}
